target datalayout = "e-m:e-p270:32:32-p271:32:32-p272:64:64-i64:64-i128:128-f80:128-n8:16:32:64-S128"
target triple = "x86_64-pc-linux-gnu"

%"class.cv::ximgproc::EstimateCovariance" = type { i32, i32, i32, i32, %"class.std::vector" }
%"class.std::vector" = type { %"struct.std::_Vector_base" }
%"struct.std::_Vector_base" = type { %"struct.std::_Vector_base<cv::ximgproc::EstimateCovariance::Combination, std::allocator<cv::ximgproc::EstimateCovariance::Combination>>::_Vector_impl" }
%"struct.std::_Vector_base<cv::ximgproc::EstimateCovariance::Combination, std::allocator<cv::ximgproc::EstimateCovariance::Combination>>::_Vector_impl" = type { %"struct.std::_Vector_base<cv::ximgproc::EstimateCovariance::Combination, std::allocator<cv::ximgproc::EstimateCovariance::Combination>>::_Vector_impl_data" }
%"struct.std::_Vector_base<cv::ximgproc::EstimateCovariance::Combination, std::allocator<cv::ximgproc::EstimateCovariance::Combination>>::_Vector_impl_data" = type { ptr, ptr, ptr }

; Function Attrs: mustprogress nounwind uwtable
define hidden noundef i32 @_ZN2cv8ximgproc18EstimateCovariance16combinationCountEv(ptr noundef nonnull align 8 dereferenceable(40) %0) #4 align 2 {
  %2 = alloca ptr, align 8
  store ptr %0, ptr %2, align 8, !tbaa !3
  %3 = load ptr, ptr %2, align 8
  %4 = getelementptr inbounds nuw %"class.cv::ximgproc::EstimateCovariance", ptr %3, i32 0, i32 2
  %5 = load i32, ptr %4, align 8, !tbaa !10
  %6 = getelementptr inbounds nuw %"class.cv::ximgproc::EstimateCovariance", ptr %3, i32 0, i32 3
  %7 = load i32, ptr %6, align 4, !tbaa !16
  %8 = mul nsw i32 %5, %7
  %9 = getelementptr inbounds nuw %"class.cv::ximgproc::EstimateCovariance", ptr %3, i32 0, i32 2
  %10 = load i32, ptr %9, align 8, !tbaa !10
  %11 = sub nsw i32 %10, 1
  %12 = getelementptr inbounds nuw %"class.cv::ximgproc::EstimateCovariance", ptr %3, i32 0, i32 3
  %13 = load i32, ptr %12, align 4, !tbaa !16
  %14 = sub nsw i32 %13, 1
  %15 = mul nsw i32 %11, %14
  %16 = add nsw i32 %8, %15
  ret i32 %16
}