; Function Attrs: mustprogress nofree norecurse nosync nounwind willreturn memory(argmem: read) uwtable
define hidden noundef i32 @_ZN2cv8ximgproc18EstimateCovariance16combinationCountEv(ptr noundef nonnull readonly align 8 captures(none) dereferenceable(40) %0) local_unnamed_addr #7 align 2 {
  %2 = getelementptr inbounds nuw i8, ptr %0, i64 8
  %3 = load i32, ptr %2, align 8, !tbaa !3
  %4 = getelementptr inbounds nuw i8, ptr %0, i64 12
  %5 = load i32, ptr %4, align 4, !tbaa !13
  %6 = mul nsw i32 %5, %3
  %7 = add nsw i32 %3, -1
  %8 = add nsw i32 %5, -1
  %9 = mul nsw i32 %8, %7
  %10 = add nsw i32 %9, %6
  ret i32 %10
}